target datalayout = "e-m:e-p270:32:32-p271:32:32-p272:64:64-i64:64-i128:128-f80:128-n8:16:32:64-S128"
target triple = "x86_64-pc-linux-gnu"

%struct.ASN1_ITEM_st = type { i8, i64, ptr, i64, ptr, i64, ptr }
%struct.ASN1_AUX_st = type { ptr, i32, i32, i32, ptr, i32, ptr }
%struct.ASN1_ENCODING_st = type { ptr, i64, i32 }

; Function Attrs: nounwind uwtable
define internal ptr @asn1_get_const_enc_ptr(ptr noundef %0, ptr noundef %1) #0 {
  %3 = alloca ptr, align 8
  %4 = alloca ptr, align 8
  %5 = alloca ptr, align 8
  %6 = alloca ptr, align 8
  %7 = alloca i32, align 4
  store ptr %0, ptr %4, align 8, !tbaa !3
  store ptr %1, ptr %5, align 8, !tbaa !8
  call void @llvm.lifetime.start.p0(i64 8, ptr %6) #5
  %8 = load ptr, ptr %4, align 8, !tbaa !3
  %9 = icmp eq ptr %8, null
  br i1 %9, label %14, label %10

10:                                               ; preds = %2
  %11 = load ptr, ptr %4, align 8, !tbaa !3
  %12 = load ptr, ptr %11, align 8, !tbaa !10
  %13 = icmp eq ptr %12, null
  br i1 %13, label %14, label %15

14:                                               ; preds = %10, %2
  store ptr null, ptr %3, align 8
  store i32 1, ptr %7, align 4
  br label %36

15:                                               ; preds = %10
  %16 = load ptr, ptr %5, align 8, !tbaa !8
  %17 = getelementptr inbounds nuw %struct.ASN1_ITEM_st, ptr %16, i32 0, i32 4
  %18 = load ptr, ptr %17, align 8, !tbaa !22
  store ptr %18, ptr %6, align 8, !tbaa !23
  %19 = load ptr, ptr %6, align 8, !tbaa !23
  %20 = icmp eq ptr %19, null
  br i1 %20, label %27, label %21

21:                                               ; preds = %15
  %22 = load ptr, ptr %6, align 8, !tbaa !23
  %23 = getelementptr inbounds nuw %struct.ASN1_AUX_st, ptr %22, i32 0, i32 1
  %24 = load i32, ptr %23, align 8, !tbaa !25
  %25 = and i32 %24, 2
  %26 = icmp eq i32 %25, 0
  br i1 %26, label %27, label %28

27:                                               ; preds = %21, %15
  store ptr null, ptr %3, align 8
  store i32 1, ptr %7, align 4
  br label %36

28:                                               ; preds = %21
  %29 = load ptr, ptr %4, align 8, !tbaa !3
  %30 = load ptr, ptr %29, align 8, !tbaa !10
  %31 = load ptr, ptr %6, align 8, !tbaa !23
  %32 = getelementptr inbounds nuw %struct.ASN1_AUX_st, ptr %31, i32 0, i32 5
  %33 = load i32, ptr %32, align 8, !tbaa !38
  %34 = sext i32 %33 to i64
  %35 = getelementptr inbounds i8, ptr %30, i64 %34
  store ptr %35, ptr %3, align 8
  store i32 1, ptr %7, align 4
  br label %36

36:                                               ; preds = %28, %27, %14
  call void @llvm.lifetime.end.p0(i64 8, ptr %6) #5
  %37 = load ptr, ptr %3, align 8
  ret ptr %37
}

; Function Attrs: nounwind uwtable
define i32 @ossl_asn1_enc_restore(ptr noundef %0, ptr noundef %1, ptr noundef %2, ptr noundef %3) #0 {
  %5 = alloca i32, align 4
  %6 = alloca ptr, align 8
  %7 = alloca ptr, align 8
  %8 = alloca ptr, align 8
  %9 = alloca ptr, align 8
  %10 = alloca ptr, align 8
  %11 = alloca i32, align 4
  store ptr %0, ptr %6, align 8, !tbaa !17
  store ptr %1, ptr %7, align 8, !tbaa !40
  store ptr %2, ptr %8, align 8, !tbaa !3
  store ptr %3, ptr %9, align 8, !tbaa !8
  call void @llvm.lifetime.start.p0(i64 8, ptr %10) #5
  %12 = load ptr, ptr %8, align 8, !tbaa !3
  %13 = load ptr, ptr %9, align 8, !tbaa !8
  %14 = call ptr @asn1_get_const_enc_ptr(ptr noundef %12, ptr noundef %13)
  store ptr %14, ptr %10, align 8, !tbaa !32
  %15 = load ptr, ptr %10, align 8, !tbaa !32
  %16 = icmp eq ptr %15, null
  br i1 %16, label %22, label %17

17:                                               ; preds = %4
  %18 = load ptr, ptr %10, align 8, !tbaa !32
  %19 = getelementptr inbounds nuw %struct.ASN1_ENCODING_st, ptr %18, i32 0, i32 2
  %20 = load i32, ptr %19, align 8, !tbaa !37
  %21 = icmp ne i32 %20, 0
  br i1 %21, label %22, label %23

22:                                               ; preds = %17, %4
  store i32 0, ptr %5, align 4
  store i32 1, ptr %11, align 4
  br label %51

23:                                               ; preds = %17
  %24 = load ptr, ptr %7, align 8, !tbaa !40
  %25 = icmp ne ptr %24, null
  br i1 %25, label %26, label %41

26:                                               ; preds = %23
  %27 = load ptr, ptr %7, align 8, !tbaa !40
  %28 = load ptr, ptr %27, align 8, !tbaa !39
  %29 = load ptr, ptr %10, align 8, !tbaa !32
  %30 = getelementptr inbounds nuw %struct.ASN1_ENCODING_st, ptr %29, i32 0, i32 0
  %31 = load ptr, ptr %30, align 8, !tbaa !34
  %32 = load ptr, ptr %10, align 8, !tbaa !32
  %33 = getelementptr inbounds nuw %struct.ASN1_ENCODING_st, ptr %32, i32 0, i32 1
  %34 = load i64, ptr %33, align 8, !tbaa !36
  call void @llvm.memcpy.p0.p0.i64(ptr align 1 %28, ptr align 1 %31, i64 %34, i1 false)
  %35 = load ptr, ptr %10, align 8, !tbaa !32
  %36 = getelementptr inbounds nuw %struct.ASN1_ENCODING_st, ptr %35, i32 0, i32 1
  %37 = load i64, ptr %36, align 8, !tbaa !36
  %38 = load ptr, ptr %7, align 8, !tbaa !40
  %39 = load ptr, ptr %38, align 8, !tbaa !39
  %40 = getelementptr inbounds i8, ptr %39, i64 %37
  store ptr %40, ptr %38, align 8, !tbaa !39
  br label %41

41:                                               ; preds = %26, %23
  %42 = load ptr, ptr %6, align 8, !tbaa !17
  %43 = icmp ne ptr %42, null
  br i1 %43, label %44, label %50

44:                                               ; preds = %41
  %45 = load ptr, ptr %10, align 8, !tbaa !32
  %46 = getelementptr inbounds nuw %struct.ASN1_ENCODING_st, ptr %45, i32 0, i32 1
  %47 = load i64, ptr %46, align 8, !tbaa !36
  %48 = trunc i64 %47 to i32
  %49 = load ptr, ptr %6, align 8, !tbaa !17
  store i32 %48, ptr %49, align 4, !tbaa !19
  br label %50

50:                                               ; preds = %44, %41
  store i32 1, ptr %5, align 4
  store i32 1, ptr %11, align 4
  br label %51

51:                                               ; preds = %50, %22
  call void @llvm.lifetime.end.p0(i64 8, ptr %10) #5
  %52 = load i32, ptr %5, align 4
  ret i32 %52
}