; Function Attrs: mustprogress nofree norecurse nosync nounwind willreturn memory(readwrite, inaccessiblemem: none) uwtable
define range(i32 0, 2) i32 @ossl_asn1_enc_restore(ptr noundef writeonly captures(address_is_null) %0, ptr noundef captures(address_is_null) %1, ptr noundef readonly captures(address_is_null) %2, ptr noundef readonly captures(none) %3) local_unnamed_addr #2 {
  %5 = icmp eq ptr %2, null
  br i1 %5, label %asn1_get_const_enc_ptr.exit.thread, label %6

6:                                                ; preds = %4
  %7 = load ptr, ptr %2, align 8, !tbaa !3
  %8 = icmp eq ptr %7, null
  br i1 %8, label %asn1_get_const_enc_ptr.exit.thread, label %9

9:                                                ; preds = %6
  %10 = getelementptr inbounds nuw i8, ptr %3, i64 32
  %11 = load ptr, ptr %10, align 8, !tbaa !16
  %12 = icmp eq ptr %11, null
  br i1 %12, label %asn1_get_const_enc_ptr.exit.thread, label %13

13:                                               ; preds = %9
  %14 = getelementptr inbounds nuw i8, ptr %11, i64 8
  %15 = load i32, ptr %14, align 8, !tbaa !17
  %16 = and i32 %15, 2
  %17 = icmp eq i32 %16, 0
  br i1 %17, label %asn1_get_const_enc_ptr.exit.thread, label %asn1_get_const_enc_ptr.exit

asn1_get_const_enc_ptr.exit:                      ; preds = %13
  %18 = getelementptr inbounds nuw i8, ptr %11, i64 32
  %19 = load i32, ptr %18, align 8, !tbaa !24
  %20 = sext i32 %19 to i64
  %21 = getelementptr inbounds i8, ptr %7, i64 %20
  %22 = getelementptr inbounds nuw i8, ptr %21, i64 16
  %23 = load i32, ptr %22, align 8, !tbaa !25
  %.not = icmp eq i32 %23, 0
  br i1 %.not, label %24, label %asn1_get_const_enc_ptr.exit.thread

24:                                               ; preds = %asn1_get_const_enc_ptr.exit
  %.not16 = icmp eq ptr %1, null
  br i1 %.not16, label %33, label %25

25:                                               ; preds = %24
  %26 = load ptr, ptr %1, align 8, !tbaa !29
  %27 = load ptr, ptr %21, align 8, !tbaa !27
  %28 = getelementptr inbounds nuw i8, ptr %21, i64 8
  %29 = load i64, ptr %28, align 8, !tbaa !28
  tail call void @llvm.memcpy.p0.p0.i64(ptr align 1 %26, ptr align 1 %27, i64 %29, i1 false)
  %30 = load i64, ptr %28, align 8, !tbaa !28
  %31 = load ptr, ptr %1, align 8, !tbaa !29
  %32 = getelementptr inbounds i8, ptr %31, i64 %30
  store ptr %32, ptr %1, align 8, !tbaa !29
  br label %33

33:                                               ; preds = %25, %24
  %.not17 = icmp eq ptr %0, null
  br i1 %.not17, label %asn1_get_const_enc_ptr.exit.thread, label %34

34:                                               ; preds = %33
  %35 = getelementptr inbounds nuw i8, ptr %21, i64 8
  %36 = load i64, ptr %35, align 8, !tbaa !28
  %37 = trunc i64 %36 to i32
  store i32 %37, ptr %0, align 4, !tbaa !13
  br label %asn1_get_const_enc_ptr.exit.thread

asn1_get_const_enc_ptr.exit.thread:               ; preds = %9, %13, %4, %6, %33, %34, %asn1_get_const_enc_ptr.exit
  %.0 = phi i32 [ 0, %asn1_get_const_enc_ptr.exit ], [ 1, %34 ], [ 1, %33 ], [ 0, %6 ], [ 0, %4 ], [ 0, %13 ], [ 0, %9 ]
  ret i32 %.0
}